; ModuleID = '9/563.c'
source_filename = "9/563.c"
target datalayout = "e-m:e-p270:32:32-p271:32:32-p272:64:64-i64:64-f80:128-n8:16:32:64-S128"
target triple = "x86_64-pc-linux-gnu"

@.str = private unnamed_addr constant [3 x i8] c"%d\00", align 1
@.str.1 = private unnamed_addr constant [6 x i8] c"%s %d\00", align 1

; Function Attrs: noinline nounwind uwtable
define dso_local i32 @main() #0 {
  %1 = alloca i32, align 4
  %2 = alloca i32, align 4
  %3 = alloca i32, align 4
  %4 = alloca i32, align 4
  %5 = alloca i32, align 4
  %6 = alloca i32, align 4
  %7 = alloca i32, align 4
  %8 = alloca i32, align 4
  %9 = alloca [1000 x i32], align 16
  %10 = alloca [1000 x [100 x i8]], align 16
  %11 = alloca [1000 x [100 x i8]], align 16
  %12 = alloca [1000 x [100 x i8]], align 16
  %13 = alloca [1000 x i8], align 16
  %14 = alloca i32, align 4
  store i32 0, i32* %1, align 4
  %15 = call i32 (i8*, ...) @__isoc99_scanf(i8* getelementptr inbounds ([3 x i8], [3 x i8]* @.str, i64 0, i64 0), i32* %2)
  store i32 0, i32* %8, align 4
  store i32 0, i32* %3, align 4
  store i32 0, i32* %5, align 4
  br label %16

16:                                               ; preds = %49, %0
  %17 = load i32, i32* %5, align 4
  %18 = load i32, i32* %2, align 4
  %19 = sub nsw i32 %18, 1
  %20 = icmp sle i32 %17, %19
  br i1 %20, label %21, label %52

21:                                               ; preds = %16
  %22 = getelementptr inbounds [1000 x i8], [1000 x i8]* %13, i64 0, i64 0
  %23 = call i32 (i8*, ...) @__isoc99_scanf(i8* getelementptr inbounds ([6 x i8], [6 x i8]* @.str.1, i64 0, i64 0), i8* %22, i32* %6)
  %24 = load i32, i32* %6, align 4
  %25 = icmp slt i32 %24, 60
  br i1 %25, label %26, label %35

26:                                               ; preds = %21
  %27 = load i32, i32* %8, align 4
  %28 = sext i32 %27 to i64
  %29 = getelementptr inbounds [1000 x [100 x i8]], [1000 x [100 x i8]]* %10, i64 0, i64 %28
  %30 = getelementptr inbounds [100 x i8], [100 x i8]* %29, i64 0, i64 0
  %31 = getelementptr inbounds [1000 x i8], [1000 x i8]* %13, i64 0, i64 0
  %32 = call i8* @strcpy(i8* %30, i8* %31) #3
  %33 = load i32, i32* %8, align 4
  %34 = add nsw i32 %33, 1
  store i32 %34, i32* %8, align 4
  br label %48

35:                                               ; preds = %21
  %36 = load i32, i32* %3, align 4
  %37 = sext i32 %36 to i64
  %38 = getelementptr inbounds [1000 x [100 x i8]], [1000 x [100 x i8]]* %11, i64 0, i64 %37
  %39 = getelementptr inbounds [100 x i8], [100 x i8]* %38, i64 0, i64 0
  %40 = getelementptr inbounds [1000 x i8], [1000 x i8]* %13, i64 0, i64 0
  %41 = call i8* @strcpy(i8* %39, i8* %40) #3
  %42 = load i32, i32* %6, align 4
  %43 = load i32, i32* %3, align 4
  %44 = sext i32 %43 to i64
  %45 = getelementptr inbounds [1000 x i32], [1000 x i32]* %9, i64 0, i64 %44
  store i32 %42, i32* %45, align 4
  %46 = load i32, i32* %3, align 4
  %47 = add nsw i32 %46, 1
  store i32 %47, i32* %3, align 4
  br label %48

48:                                               ; preds = %35, %26
  br label %49

49:                                               ; preds = %48
  %50 = load i32, i32* %5, align 4
  %51 = add nsw i32 %50, 1
  store i32 %51, i32* %5, align 4
  br label %16

52:                                               ; preds = %16
  store i32 0, i32* %14, align 4
  store i32 200, i32* %5, align 4
  br label %53

53:                                               ; preds = %86, %52
  %54 = load i32, i32* %5, align 4
  %55 = icmp sge i32 %54, 60
  br i1 %55, label %56, label %89

56:                                               ; preds = %53
  store i32 0, i32* %4, align 4
  br label %57

57:                                               ; preds = %82, %56
  %58 = load i32, i32* %4, align 4
  %59 = load i32, i32* %3, align 4
  %60 = sub nsw i32 %59, 1
  %61 = icmp sle i32 %58, %60
  br i1 %61, label %62, label %85

62:                                               ; preds = %57
  %63 = load i32, i32* %5, align 4
  %64 = load i32, i32* %4, align 4
  %65 = sext i32 %64 to i64
  %66 = getelementptr inbounds [1000 x i32], [1000 x i32]* %9, i64 0, i64 %65
  %67 = load i32, i32* %66, align 4
  %68 = icmp eq i32 %63, %67
  br i1 %68, label %69, label %81

69:                                               ; preds = %62
  %70 = load i32, i32* %14, align 4
  %71 = sext i32 %70 to i64
  %72 = getelementptr inbounds [1000 x [100 x i8]], [1000 x [100 x i8]]* %12, i64 0, i64 %71
  %73 = getelementptr inbounds [100 x i8], [100 x i8]* %72, i64 0, i64 0
  %74 = load i32, i32* %4, align 4
  %75 = sext i32 %74 to i64
  %76 = getelementptr inbounds [1000 x [100 x i8]], [1000 x [100 x i8]]* %11, i64 0, i64 %75
  %77 = getelementptr inbounds [100 x i8], [100 x i8]* %76, i64 0, i64 0
  %78 = call i8* @strcpy(i8* %73, i8* %77) #3
  %79 = load i32, i32* %14, align 4
  %80 = add nsw i32 %79, 1
  store i32 %80, i32* %14, align 4
  br label %81

81:                                               ; preds = %69, %62
  br label %82

82:                                               ; preds = %81
  %83 = load i32, i32* %4, align 4
  %84 = add nsw i32 %83, 1
  store i32 %84, i32* %4, align 4
  br label %57

85:                                               ; preds = %57
  br label %86

86:                                               ; preds = %85
  %87 = load i32, i32* %5, align 4
  %88 = add nsw i32 %87, -1
  store i32 %88, i32* %5, align 4
  br label %53

89:                                               ; preds = %53
  store i32 0, i32* %5, align 4
  br label %90

90:                                               ; preds = %101, %89
  %91 = load i32, i32* %5, align 4
  %92 = load i32, i32* %3, align 4
  %93 = sub nsw i32 %92, 1
  %94 = icmp sle i32 %91, %93
  br i1 %94, label %95, label %104

95:                                               ; preds = %90
  %96 = load i32, i32* %5, align 4
  %97 = sext i32 %96 to i64
  %98 = getelementptr inbounds [1000 x [100 x i8]], [1000 x [100 x i8]]* %12, i64 0, i64 %97
  %99 = getelementptr inbounds [100 x i8], [100 x i8]* %98, i64 0, i64 0
  %100 = call i32 @puts(i8* %99)
  br label %101

101:                                              ; preds = %95
  %102 = load i32, i32* %5, align 4
  %103 = add nsw i32 %102, 1
  store i32 %103, i32* %5, align 4
  br label %90

104:                                              ; preds = %90
  store i32 0, i32* %5, align 4
  br label %105

105:                                              ; preds = %118, %104
  %106 = load i32, i32* %5, align 4
  %107 = load i32, i32* %2, align 4
  %108 = load i32, i32* %3, align 4
  %109 = sub nsw i32 %107, %108
  %110 = sub nsw i32 %109, 1
  %111 = icmp sle i32 %106, %110
  br i1 %111, label %112, label %121

112:                                              ; preds = %105
  %113 = load i32, i32* %5, align 4
  %114 = sext i32 %113 to i64
  %115 = getelementptr inbounds [1000 x [100 x i8]], [1000 x [100 x i8]]* %10, i64 0, i64 %114
  %116 = getelementptr inbounds [100 x i8], [100 x i8]* %115, i64 0, i64 0
  %117 = call i32 @puts(i8* %116)
  br label %118

118:                                              ; preds = %112
  %119 = load i32, i32* %5, align 4
  %120 = add nsw i32 %119, 1
  store i32 %120, i32* %5, align 4
  br label %105

121:                                              ; preds = %105
  %122 = call i32 @getchar()
  %123 = call i32 @getchar()
  %124 = load i32, i32* %1, align 4
  ret i32 %124
}

declare dso_local i32 @__isoc99_scanf(i8*, ...) #1

; Function Attrs: nounwind
declare dso_local i8* @strcpy(i8*, i8*) #2

declare dso_local i32 @puts(i8*) #1

declare dso_local i32 @getchar() #1


!llvm.module.flags = !{!0}
!llvm.ident = !{!1}

!0 = !{i32 1, !"wchar_size", i32 4}
!1 = !{!"clang version 10.0.0-4ubuntu1 "}
